target datalayout = "e-m:e-p270:32:32-p271:32:32-p272:64:64-i64:64-i128:128-f80:128-n8:16:32:64-S128"
target triple = "x86_64-pc-linux-gnu"

%class.dtPathCorridor = type { [3 x float], [3 x float], ptr, i32, i32 }

@.str.1 = private unnamed_addr constant [153 x i8] c"generated/home/dtcxzyw/WorkSpace/Projects/compilers/llvm-opt-benchmark/bench/recastnavigation/recastnavigation/DetourCrowd/Source/DetourPathCorridor.cpp\00", align 1
@.str.3 = private unnamed_addr constant [7 x i8] c"m_path\00", align 1
@.str.4 = private unnamed_addr constant [8 x i8] c"m_npath\00", align 1

; Function Attrs: mustprogress nounwind uwtable
define linkonce_odr noundef float @_Z5dtSqrIfET_S0_(float noundef %0) #1 comdat {
  %2 = alloca float, align 4
  store float %0, ptr %2, align 4
  %3 = load float, ptr %2, align 4
  %4 = load float, ptr %2, align 4
  %5 = fmul float %3, %4
  ret float %5
}

; Function Attrs: mustprogress nounwind uwtable
define linkonce_odr noundef float @_Z12dtVdist2DSqrPKfS0_(ptr noundef %0, ptr noundef %1) #1 comdat {
  %3 = alloca ptr, align 8
  %4 = alloca ptr, align 8
  %5 = alloca float, align 4
  %6 = alloca float, align 4
  store ptr %0, ptr %3, align 8
  store ptr %1, ptr %4, align 8
  %7 = load ptr, ptr %4, align 8
  %8 = getelementptr inbounds float, ptr %7, i64 0
  %9 = load float, ptr %8, align 4
  %10 = load ptr, ptr %3, align 8
  %11 = getelementptr inbounds float, ptr %10, i64 0
  %12 = load float, ptr %11, align 4
  %13 = fsub float %9, %12
  store float %13, ptr %5, align 4
  %14 = load ptr, ptr %4, align 8
  %15 = getelementptr inbounds float, ptr %14, i64 2
  %16 = load float, ptr %15, align 4
  %17 = load ptr, ptr %3, align 8
  %18 = getelementptr inbounds float, ptr %17, i64 2
  %19 = load float, ptr %18, align 4
  %20 = fsub float %16, %19
  store float %20, ptr %6, align 4
  %21 = load float, ptr %5, align 4
  %22 = load float, ptr %5, align 4
  %23 = load float, ptr %6, align 4
  %24 = load float, ptr %6, align 4
  %25 = fmul float %23, %24
  %26 = call float @llvm.fmuladd.f32(float %21, float %22, float %25)
  ret float %26
}

; Function Attrs: mustprogress uwtable
define noundef i32 @_ZN14dtPathCorridor11findCornersEPfPhPjiP14dtNavMeshQueryPK13dtQueryFilter(ptr noundef nonnull align 8 dereferenceable(40) %0, ptr noundef %1, ptr noundef %2, ptr noundef %3, i32 noundef %4, ptr noundef %5, ptr noundef %6) #0 align 2 {
  %8 = alloca ptr, align 8
  %9 = alloca ptr, align 8
  %10 = alloca ptr, align 8
  %11 = alloca ptr, align 8
  %12 = alloca i32, align 4
  %13 = alloca ptr, align 8
  %14 = alloca ptr, align 8
  %15 = alloca ptr, align 8
  %16 = alloca ptr, align 8
  %17 = alloca i32, align 4
  %18 = alloca i32, align 4
  store ptr %0, ptr %8, align 8
  store ptr %1, ptr %9, align 8
  store ptr %2, ptr %10, align 8
  store ptr %3, ptr %11, align 8
  store i32 %4, ptr %12, align 4
  store ptr %5, ptr %13, align 8
  store ptr %6, ptr %14, align 8
  %19 = load ptr, ptr %8, align 8
  %20 = call noundef ptr @_Z21dtAssertFailGetCustomv()
  store ptr %20, ptr %15, align 8
  %21 = load ptr, ptr %15, align 8
  %22 = icmp eq ptr %21, null
  br i1 %22, label %23, label %24

23:                                               ; preds = %7
  br label %31

24:                                               ; preds = %7
  %25 = getelementptr inbounds %class.dtPathCorridor, ptr %19, i32 0, i32 2
  %26 = load ptr, ptr %25, align 8
  %27 = icmp ne ptr %26, null
  br i1 %27, label %30, label %28

28:                                               ; preds = %24
  %29 = load ptr, ptr %15, align 8
  call void %29(ptr noundef @.str.3, ptr noundef @.str.1, i32 noundef 255)
  br label %30

30:                                               ; preds = %28, %24
  br label %31

31:                                               ; preds = %30, %23
  %32 = call noundef ptr @_Z21dtAssertFailGetCustomv()
  store ptr %32, ptr %16, align 8
  %33 = load ptr, ptr %16, align 8
  %34 = icmp eq ptr %33, null
  br i1 %34, label %35, label %36

35:                                               ; preds = %31
  br label %43

36:                                               ; preds = %31
  %37 = getelementptr inbounds %class.dtPathCorridor, ptr %19, i32 0, i32 3
  %38 = load i32, ptr %37, align 8
  %39 = icmp ne i32 %38, 0
  br i1 %39, label %42, label %40

40:                                               ; preds = %36
  %41 = load ptr, ptr %16, align 8
  call void %41(ptr noundef @.str.4, ptr noundef @.str.1, i32 noundef 256)
  br label %42

42:                                               ; preds = %40, %36
  br label %43

43:                                               ; preds = %42, %35
  store i32 0, ptr %17, align 4
  %44 = load ptr, ptr %13, align 8
  %45 = getelementptr inbounds %class.dtPathCorridor, ptr %19, i32 0, i32 0
  %46 = getelementptr inbounds [3 x float], ptr %45, i64 0, i64 0
  %47 = getelementptr inbounds %class.dtPathCorridor, ptr %19, i32 0, i32 1
  %48 = getelementptr inbounds [3 x float], ptr %47, i64 0, i64 0
  %49 = getelementptr inbounds %class.dtPathCorridor, ptr %19, i32 0, i32 2
  %50 = load ptr, ptr %49, align 8
  %51 = getelementptr inbounds %class.dtPathCorridor, ptr %19, i32 0, i32 3
  %52 = load i32, ptr %51, align 8
  %53 = load ptr, ptr %9, align 8
  %54 = load ptr, ptr %10, align 8
  %55 = load ptr, ptr %11, align 8
  %56 = load i32, ptr %12, align 4
  %57 = call noundef i32 @_ZNK14dtNavMeshQuery16findStraightPathEPKfS1_PKjiPfPhPjPiii(ptr noundef nonnull align 8 dereferenceable(104) %44, ptr noundef %46, ptr noundef %48, ptr noundef %50, i32 noundef %52, ptr noundef %53, ptr noundef %54, ptr noundef %55, ptr noundef %17, i32 noundef %56, i32 noundef 0)
  br label %58

58:                                               ; preds = %101, %43
  %59 = load i32, ptr %17, align 4
  %60 = icmp ne i32 %59, 0
  br i1 %60, label %61, label %102

61:                                               ; preds = %58
  %62 = load ptr, ptr %10, align 8
  %63 = getelementptr inbounds i8, ptr %62, i64 0
  %64 = load i8, ptr %63, align 1
  %65 = zext i8 %64 to i32
  %66 = and i32 %65, 4
  %67 = icmp ne i32 %66, 0
  br i1 %67, label %76, label %68

68:                                               ; preds = %61
  %69 = load ptr, ptr %9, align 8
  %70 = getelementptr inbounds float, ptr %69, i64 0
  %71 = getelementptr inbounds %class.dtPathCorridor, ptr %19, i32 0, i32 0
  %72 = getelementptr inbounds [3 x float], ptr %71, i64 0, i64 0
  %73 = call noundef float @_Z12dtVdist2DSqrPKfS0_(ptr noundef %70, ptr noundef %72)
  %74 = call noundef float @_Z5dtSqrIfET_S0_(float noundef 0x3F847AE140000000)
  %75 = fcmp ogt float %73, %74
  br i1 %75, label %76, label %77

76:                                               ; preds = %68, %61
  br label %102

77:                                               ; preds = %68
  %78 = load i32, ptr %17, align 4
  %79 = add nsw i32 %78, -1
  store i32 %79, ptr %17, align 4
  %80 = load i32, ptr %17, align 4
  %81 = icmp ne i32 %80, 0
  br i1 %81, label %82, label %101

82:                                               ; preds = %77
  %83 = load ptr, ptr %10, align 8
  %84 = load ptr, ptr %10, align 8
  %85 = getelementptr inbounds i8, ptr %84, i64 1
  %86 = load i32, ptr %17, align 4
  %87 = sext i32 %86 to i64
  %88 = mul i64 1, %87
  call void @llvm.memmove.p0.p0.i64(ptr align 1 %83, ptr align 1 %85, i64 %88, i1 false)
  %89 = load ptr, ptr %11, align 8
  %90 = load ptr, ptr %11, align 8
  %91 = getelementptr inbounds i32, ptr %90, i64 1
  %92 = load i32, ptr %17, align 4
  %93 = sext i32 %92 to i64
  %94 = mul i64 4, %93
  call void @llvm.memmove.p0.p0.i64(ptr align 4 %89, ptr align 4 %91, i64 %94, i1 false)
  %95 = load ptr, ptr %9, align 8
  %96 = load ptr, ptr %9, align 8
  %97 = getelementptr inbounds float, ptr %96, i64 3
  %98 = load i32, ptr %17, align 4
  %99 = sext i32 %98 to i64
  %100 = mul i64 12, %99
  call void @llvm.memmove.p0.p0.i64(ptr align 4 %95, ptr align 4 %97, i64 %100, i1 false)
  br label %101

101:                                              ; preds = %82, %77
  br label %58, !llvm.loop !13

102:                                              ; preds = %76, %58
  store i32 0, ptr %18, align 4
  br label %103

103:                                              ; preds = %120, %102
  %104 = load i32, ptr %18, align 4
  %105 = load i32, ptr %17, align 4
  %106 = icmp slt i32 %104, %105
  br i1 %106, label %107, label %123

107:                                              ; preds = %103
  %108 = load ptr, ptr %10, align 8
  %109 = load i32, ptr %18, align 4
  %110 = sext i32 %109 to i64
  %111 = getelementptr inbounds i8, ptr %108, i64 %110
  %112 = load i8, ptr %111, align 1
  %113 = zext i8 %112 to i32
  %114 = and i32 %113, 4
  %115 = icmp ne i32 %114, 0
  br i1 %115, label %116, label %119

116:                                              ; preds = %107
  %117 = load i32, ptr %18, align 4
  %118 = add nsw i32 %117, 1
  store i32 %118, ptr %17, align 4
  br label %123

119:                                              ; preds = %107
  br label %120

120:                                              ; preds = %119
  %121 = load i32, ptr %18, align 4
  %122 = add nsw i32 %121, 1
  store i32 %122, ptr %18, align 4
  br label %103, !llvm.loop !14

123:                                              ; preds = %116, %103
  %124 = load i32, ptr %17, align 4
  ret i32 %124
}