; Function Attrs: mustprogress uwtable
define noundef i32 @_ZN14dtPathCorridor11findCornersEPfPhPjiP14dtNavMeshQueryPK13dtQueryFilter(ptr noundef nonnull align 8 dereferenceable(40) %0, ptr noundef %1, ptr noundef %2, ptr noundef %3, i32 noundef %4, ptr noundef %5, ptr noundef readnone captures(none) %6) local_unnamed_addr #2 align 2 {
  %8 = alloca i32, align 4
  %9 = tail call noundef ptr @_Z21dtAssertFailGetCustomv()
  %10 = icmp ne ptr %9, null
  %11 = getelementptr inbounds nuw i8, ptr %0, i64 24
  %12 = load ptr, ptr %11, align 8
  %.not = icmp eq ptr %12, null
  %or.cond = select i1 %10, i1 %.not, i1 false
  br i1 %or.cond, label %13, label %14

13:                                               ; preds = %7
  tail call void %9(ptr noundef nonnull @.str.3, ptr noundef nonnull @.str.1, i32 noundef 255)
  br label %14

14:                                               ; preds = %13, %7
  %15 = tail call noundef ptr @_Z21dtAssertFailGetCustomv()
  %16 = icmp ne ptr %15, null
  %17 = getelementptr inbounds nuw i8, ptr %0, i64 32
  %18 = load i32, ptr %17, align 8
  %.not25 = icmp eq i32 %18, 0
  %or.cond32 = select i1 %16, i1 %.not25, i1 false
  br i1 %or.cond32, label %19, label %20

19:                                               ; preds = %14
  tail call void %15(ptr noundef nonnull @.str.4, ptr noundef nonnull @.str.1, i32 noundef 256)
  %.pre = load i32, ptr %17, align 8
  br label %20

20:                                               ; preds = %19, %14
  %21 = phi i32 [ %.pre, %19 ], [ %18, %14 ]
  store i32 0, ptr %8, align 4
  %22 = getelementptr inbounds nuw i8, ptr %0, i64 12
  %23 = load ptr, ptr %11, align 8
  %24 = call noundef i32 @_ZNK14dtNavMeshQuery16findStraightPathEPKfS1_PKjiPfPhPjPiii(ptr noundef nonnull align 8 dereferenceable(104) %5, ptr noundef nonnull %0, ptr noundef nonnull %22, ptr noundef %23, i32 noundef %21, ptr noundef %1, ptr noundef %2, ptr noundef %3, ptr noundef nonnull %8, i32 noundef %4, i32 noundef 0)
  %.promoted = load i32, ptr %8, align 4
  %.not2634 = icmp eq i32 %.promoted, 0
  br i1 %.not2634, label %.loopexit, label %.lr.ph

.lr.ph:                                           ; preds = %20
  %25 = getelementptr inbounds nuw i8, ptr %0, i64 8
  %26 = getelementptr inbounds nuw i8, ptr %1, i64 8
  %27 = getelementptr inbounds nuw i8, ptr %2, i64 1
  %28 = getelementptr inbounds nuw i8, ptr %3, i64 4
  %29 = getelementptr inbounds nuw i8, ptr %1, i64 12
  %30 = sext i32 %.promoted to i64
  %31 = load i8, ptr %2, align 1
  %32 = and i8 %31, 4
  %.not2757 = icmp eq i8 %32, 0
  br i1 %.not2757, label %.lr.ph59, label %._crit_edge

.lr.ph59:                                         ; preds = %.lr.ph, %44
  %indvars.iv58 = phi i64 [ %indvars.iv.next, %44 ], [ %30, %.lr.ph ]
  %33 = phi i32 [ %45, %44 ], [ %.promoted, %.lr.ph ]
  %34 = load float, ptr %0, align 8
  %35 = load float, ptr %1, align 4
  %36 = fsub float %34, %35
  %37 = load float, ptr %25, align 8
  %38 = load float, ptr %26, align 4
  %39 = fsub float %37, %38
  %40 = fmul float %39, %39
  %41 = call noundef float @llvm.fmuladd.f32(float %36, float %36, float %40)
  %42 = fcmp ogt float %41, 0x3F1A36E2E0000000
  br i1 %42, label %._crit_edge, label %43

43:                                               ; preds = %.lr.ph59
  %indvars.iv.next = add nsw i64 %indvars.iv58, -1
  %cond = icmp eq i64 %indvars.iv.next, 0
  br i1 %cond, label %.loopexit, label %44

44:                                               ; preds = %43
  %45 = trunc nsw i64 %indvars.iv.next to i32
  call void @llvm.memmove.p0.p0.i64(ptr nonnull align 1 %2, ptr nonnull align 1 %27, i64 %indvars.iv.next, i1 false)
  %46 = shl nsw i64 %indvars.iv.next, 2
  call void @llvm.memmove.p0.p0.i64(ptr align 4 %3, ptr nonnull align 4 %28, i64 %46, i1 false)
  %47 = mul nsw i64 %indvars.iv.next, 12
  call void @llvm.memmove.p0.p0.i64(ptr nonnull align 4 %1, ptr nonnull align 4 %29, i64 %47, i1 false)
  %48 = load i8, ptr %2, align 1
  %49 = and i8 %48, 4
  %.not27 = icmp eq i8 %49, 0
  br i1 %.not27, label %.lr.ph59, label %._crit_edge

._crit_edge:                                      ; preds = %44, %.lr.ph59, %.lr.ph
  %.lcssa = phi i32 [ %.promoted, %.lr.ph ], [ %45, %44 ], [ %33, %.lr.ph59 ]
  %indvars.iv.lcssa = phi i64 [ %30, %.lr.ph ], [ %indvars.iv.next, %44 ], [ %indvars.iv58, %.lr.ph59 ]
  %50 = icmp sgt i64 %indvars.iv.lcssa, 0
  br i1 %50, label %.lr.ph41.preheader, label %.loopexit

.lr.ph41.preheader:                               ; preds = %._crit_edge
  %wide.trip.count = and i64 %indvars.iv.lcssa, 4294967295
  br label %.lr.ph41

.lr.ph41:                                         ; preds = %.lr.ph41.preheader, %57
  %indvars.iv44 = phi i64 [ 0, %.lr.ph41.preheader ], [ %indvars.iv.next45, %57 ]
  %51 = getelementptr inbounds nuw i8, ptr %2, i64 %indvars.iv44
  %52 = load i8, ptr %51, align 1
  %53 = and i8 %52, 4
  %.not29 = icmp eq i8 %53, 0
  br i1 %.not29, label %57, label %54

54:                                               ; preds = %.lr.ph41
  %55 = trunc nuw nsw i64 %indvars.iv44 to i32
  %56 = add nuw nsw i32 %55, 1
  br label %.loopexit

57:                                               ; preds = %.lr.ph41
  %indvars.iv.next45 = add nuw nsw i64 %indvars.iv44, 1
  %exitcond.not = icmp eq i64 %indvars.iv.next45, %wide.trip.count
  br i1 %exitcond.not, label %.loopexit, label %.lr.ph41, !llvm.loop !13

.loopexit:                                        ; preds = %43, %57, %20, %._crit_edge, %54
  %58 = phi i32 [ %.lcssa, %._crit_edge ], [ %56, %54 ], [ 0, %20 ], [ %.lcssa, %57 ], [ 0, %43 ]
  ret i32 %58
}